target datalayout = "e-m:e-p270:32:32-p271:32:32-p272:64:64-i64:64-i128:128-f80:128-n8:16:32:64-S128"
target triple = "x86_64-pc-linux-gnu"

%struct.SRP_gN_st = type { ptr, ptr, ptr }

@.str = private unnamed_addr constant [32 x i8] c"../openssl/crypto/srp/srp_vfy.c\00", align 1
@.str.2 = private unnamed_addr constant [2 x i8] c"*\00", align 1

; Function Attrs: nounwind uwtable
define ptr @SRP_create_verifier_ex(ptr noundef %0, ptr noundef %1, ptr noundef %2, ptr noundef %3, ptr noundef %4, ptr noundef %5, ptr noundef %6, ptr noundef %7) #0 {
  %9 = alloca ptr, align 8
  %10 = alloca ptr, align 8
  %11 = alloca ptr, align 8
  %12 = alloca ptr, align 8
  %13 = alloca ptr, align 8
  %14 = alloca ptr, align 8
  %15 = alloca ptr, align 8
  %16 = alloca ptr, align 8
  %17 = alloca ptr, align 8
  %18 = alloca i32, align 4
  %19 = alloca ptr, align 8
  %20 = alloca ptr, align 8
  %21 = alloca ptr, align 8
  %22 = alloca ptr, align 8
  %23 = alloca ptr, align 8
  %24 = alloca ptr, align 8
  %25 = alloca ptr, align 8
  %26 = alloca ptr, align 8
  %27 = alloca [2500 x i8], align 16
  %28 = alloca [2500 x i8], align 16
  %29 = alloca ptr, align 8
  %30 = alloca i32, align 4
  %31 = alloca ptr, align 8
  %32 = alloca i32, align 4
  %33 = alloca ptr, align 8
  store ptr %0, ptr %10, align 8, !tbaa !18
  store ptr %1, ptr %11, align 8, !tbaa !18
  store ptr %2, ptr %12, align 8, !tbaa !50
  store ptr %3, ptr %13, align 8, !tbaa !50
  store ptr %4, ptr %14, align 8, !tbaa !18
  store ptr %5, ptr %15, align 8, !tbaa !18
  store ptr %6, ptr %16, align 8, !tbaa !69
  store ptr %7, ptr %17, align 8, !tbaa !18
  call void @llvm.lifetime.start.p0(i64 4, ptr %18) #7
  call void @llvm.lifetime.start.p0(i64 8, ptr %19) #7
  store ptr null, ptr %19, align 8, !tbaa !18
  call void @llvm.lifetime.start.p0(i64 8, ptr %20) #7
  store ptr null, ptr %20, align 8, !tbaa !18
  call void @llvm.lifetime.start.p0(i64 8, ptr %21) #7
  store ptr null, ptr %21, align 8, !tbaa !17
  call void @llvm.lifetime.start.p0(i64 8, ptr %22) #7
  store ptr null, ptr %22, align 8, !tbaa !17
  call void @llvm.lifetime.start.p0(i64 8, ptr %23) #7
  store ptr null, ptr %23, align 8, !tbaa !17
  call void @llvm.lifetime.start.p0(i64 8, ptr %24) #7
  store ptr null, ptr %24, align 8, !tbaa !17
  call void @llvm.lifetime.start.p0(i64 8, ptr %25) #7
  store ptr null, ptr %25, align 8, !tbaa !17
  call void @llvm.lifetime.start.p0(i64 8, ptr %26) #7
  store ptr null, ptr %26, align 8, !tbaa !17
  call void @llvm.lifetime.start.p0(i64 2500, ptr %27) #7
  call void @llvm.lifetime.start.p0(i64 2500, ptr %28) #7
  call void @llvm.lifetime.start.p0(i64 8, ptr %29) #7
  store ptr null, ptr %29, align 8, !tbaa !18
  call void @llvm.lifetime.start.p0(i64 4, ptr %30) #7
  store i32 0, ptr %30, align 4, !tbaa !32
  %34 = load ptr, ptr %10, align 8, !tbaa !18
  %35 = icmp eq ptr %34, null
  br i1 %35, label %45, label %36

36:                                               ; preds = %8
  %37 = load ptr, ptr %11, align 8, !tbaa !18
  %38 = icmp eq ptr %37, null
  br i1 %38, label %45, label %39

39:                                               ; preds = %36
  %40 = load ptr, ptr %12, align 8, !tbaa !50
  %41 = icmp eq ptr %40, null
  br i1 %41, label %45, label %42

42:                                               ; preds = %39
  %43 = load ptr, ptr %13, align 8, !tbaa !50
  %44 = icmp eq ptr %43, null
  br i1 %44, label %45, label %46

45:                                               ; preds = %42, %39, %36, %8
  br label %187

46:                                               ; preds = %42
  %47 = load ptr, ptr %14, align 8, !tbaa !18
  %48 = icmp ne ptr %47, null
  br i1 %48, label %49, label %78

49:                                               ; preds = %46
  %50 = getelementptr inbounds [2500 x i8], ptr %27, i64 0, i64 0
  %51 = load ptr, ptr %14, align 8, !tbaa !18
  %52 = call i32 @t_fromb64(ptr noundef %50, i64 noundef 2500, ptr noundef %51)
  store i32 %52, ptr %18, align 4, !tbaa !32
  %53 = icmp sle i32 %52, 0
  br i1 %53, label %54, label %55

54:                                               ; preds = %49
  br label %187

55:                                               ; preds = %49
  %56 = getelementptr inbounds [2500 x i8], ptr %27, i64 0, i64 0
  %57 = load i32, ptr %18, align 4, !tbaa !32
  %58 = call ptr @BN_bin2bn(ptr noundef %56, i32 noundef %57, ptr noundef null)
  store ptr %58, ptr %23, align 8, !tbaa !17
  %59 = load ptr, ptr %23, align 8, !tbaa !17
  %60 = icmp eq ptr %59, null
  br i1 %60, label %61, label %62

61:                                               ; preds = %55
  br label %187

62:                                               ; preds = %55
  %63 = load ptr, ptr %23, align 8, !tbaa !17
  store ptr %63, ptr %21, align 8, !tbaa !17
  %64 = getelementptr inbounds [2500 x i8], ptr %27, i64 0, i64 0
  %65 = load ptr, ptr %15, align 8, !tbaa !18
  %66 = call i32 @t_fromb64(ptr noundef %64, i64 noundef 2500, ptr noundef %65)
  store i32 %66, ptr %18, align 4, !tbaa !32
  %67 = icmp sle i32 %66, 0
  br i1 %67, label %68, label %69

68:                                               ; preds = %62
  br label %187

69:                                               ; preds = %62
  %70 = getelementptr inbounds [2500 x i8], ptr %27, i64 0, i64 0
  %71 = load i32, ptr %18, align 4, !tbaa !32
  %72 = call ptr @BN_bin2bn(ptr noundef %70, i32 noundef %71, ptr noundef null)
  store ptr %72, ptr %24, align 8, !tbaa !17
  %73 = load ptr, ptr %24, align 8, !tbaa !17
  %74 = icmp eq ptr %73, null
  br i1 %74, label %75, label %76

75:                                               ; preds = %69
  br label %187

76:                                               ; preds = %69
  %77 = load ptr, ptr %24, align 8, !tbaa !17
  store ptr %77, ptr %22, align 8, !tbaa !17
  store ptr @.str.2, ptr %29, align 8, !tbaa !18
  br label %97

78:                                               ; preds = %46
  call void @llvm.lifetime.start.p0(i64 8, ptr %31) #7
  %79 = load ptr, ptr %15, align 8, !tbaa !18
  %80 = call ptr @SRP_get_default_gN(ptr noundef %79)
  store ptr %80, ptr %31, align 8, !tbaa !36
  %81 = load ptr, ptr %31, align 8, !tbaa !36
  %82 = icmp eq ptr %81, null
  br i1 %82, label %83, label %84

83:                                               ; preds = %78
  store i32 2, ptr %32, align 4
  br label %94

84:                                               ; preds = %78
  %85 = load ptr, ptr %31, align 8, !tbaa !36
  %86 = getelementptr inbounds nuw %struct.SRP_gN_st, ptr %85, i32 0, i32 2
  %87 = load ptr, ptr %86, align 8, !tbaa !52
  store ptr %87, ptr %21, align 8, !tbaa !17
  %88 = load ptr, ptr %31, align 8, !tbaa !36
  %89 = getelementptr inbounds nuw %struct.SRP_gN_st, ptr %88, i32 0, i32 1
  %90 = load ptr, ptr %89, align 8, !tbaa !53
  store ptr %90, ptr %22, align 8, !tbaa !17
  %91 = load ptr, ptr %31, align 8, !tbaa !36
  %92 = getelementptr inbounds nuw %struct.SRP_gN_st, ptr %91, i32 0, i32 0
  %93 = load ptr, ptr %92, align 8, !tbaa !42
  store ptr %93, ptr %29, align 8, !tbaa !18
  store i32 0, ptr %32, align 4
  br label %94

94:                                               ; preds = %83, %84
  call void @llvm.lifetime.end.p0(i64 8, ptr %31) #7
  %95 = load i32, ptr %32, align 4
  switch i32 %95, label %196 [
    i32 0, label %96
    i32 2, label %187
  ]

96:                                               ; preds = %94
  br label %97

97:                                               ; preds = %96, %76
  %98 = load ptr, ptr %12, align 8, !tbaa !50
  %99 = load ptr, ptr %98, align 8, !tbaa !18
  %100 = icmp eq ptr %99, null
  br i1 %100, label %101, label %110

101:                                              ; preds = %97
  %102 = load ptr, ptr %16, align 8, !tbaa !69
  %103 = getelementptr inbounds [2500 x i8], ptr %28, i64 0, i64 0
  %104 = call i32 @RAND_bytes_ex(ptr noundef %102, ptr noundef %103, i64 noundef 20, i32 noundef 0)
  %105 = icmp sle i32 %104, 0
  br i1 %105, label %106, label %107

106:                                              ; preds = %101
  br label %187

107:                                              ; preds = %101
  %108 = getelementptr inbounds [2500 x i8], ptr %28, i64 0, i64 0
  %109 = call ptr @BN_bin2bn(ptr noundef %108, i32 noundef 20, ptr noundef null)
  store ptr %109, ptr %25, align 8, !tbaa !17
  br label %121

110:                                              ; preds = %97
  %111 = getelementptr inbounds [2500 x i8], ptr %28, i64 0, i64 0
  %112 = load ptr, ptr %12, align 8, !tbaa !50
  %113 = load ptr, ptr %112, align 8, !tbaa !18
  %114 = call i32 @t_fromb64(ptr noundef %111, i64 noundef 2500, ptr noundef %113)
  store i32 %114, ptr %18, align 4, !tbaa !32
  %115 = icmp sle i32 %114, 0
  br i1 %115, label %116, label %117

116:                                              ; preds = %110
  br label %187

117:                                              ; preds = %110
  %118 = getelementptr inbounds [2500 x i8], ptr %28, i64 0, i64 0
  %119 = load i32, ptr %18, align 4, !tbaa !32
  %120 = call ptr @BN_bin2bn(ptr noundef %118, i32 noundef %119, ptr noundef null)
  store ptr %120, ptr %25, align 8, !tbaa !17
  br label %121

121:                                              ; preds = %117, %107
  %122 = load ptr, ptr %25, align 8, !tbaa !17
  %123 = icmp eq ptr %122, null
  br i1 %123, label %124, label %125

124:                                              ; preds = %121
  br label %187

125:                                              ; preds = %121
  %126 = load ptr, ptr %10, align 8, !tbaa !18
  %127 = load ptr, ptr %11, align 8, !tbaa !18
  %128 = load ptr, ptr %21, align 8, !tbaa !17
  %129 = load ptr, ptr %22, align 8, !tbaa !17
  %130 = load ptr, ptr %16, align 8, !tbaa !69
  %131 = load ptr, ptr %17, align 8, !tbaa !18
  %132 = call i32 @SRP_create_verifier_BN_ex(ptr noundef %126, ptr noundef %127, ptr noundef %25, ptr noundef %26, ptr noundef %128, ptr noundef %129, ptr noundef %130, ptr noundef %131)
  %133 = icmp ne i32 %132, 0
  br i1 %133, label %135, label %134

134:                                              ; preds = %125
  br label %187

135:                                              ; preds = %125
  %136 = load ptr, ptr %26, align 8, !tbaa !17
  %137 = getelementptr inbounds [2500 x i8], ptr %27, i64 0, i64 0
  %138 = call i32 @BN_bn2bin(ptr noundef %136, ptr noundef %137)
  %139 = icmp slt i32 %138, 0
  br i1 %139, label %140, label %141

140:                                              ; preds = %135
  br label %187

141:                                              ; preds = %135
  %142 = load ptr, ptr %26, align 8, !tbaa !17
  %143 = call i32 @BN_num_bits(ptr noundef %142)
  %144 = add nsw i32 %143, 7
  %145 = sdiv i32 %144, 8
  %146 = mul nsw i32 %145, 2
  store i32 %146, ptr %30, align 4, !tbaa !32
  %147 = load i32, ptr %30, align 4, !tbaa !32
  %148 = sext i32 %147 to i64
  %149 = call noalias ptr @CRYPTO_malloc(i64 noundef %148, ptr noundef @.str, i32 noundef 676)
  store ptr %149, ptr %20, align 8, !tbaa !18
  %150 = icmp eq ptr %149, null
  br i1 %150, label %151, label %152

151:                                              ; preds = %141
  br label %187

152:                                              ; preds = %141
  %153 = load ptr, ptr %20, align 8, !tbaa !18
  %154 = getelementptr inbounds [2500 x i8], ptr %27, i64 0, i64 0
  %155 = load ptr, ptr %26, align 8, !tbaa !17
  %156 = call i32 @BN_num_bits(ptr noundef %155)
  %157 = add nsw i32 %156, 7
  %158 = sdiv i32 %157, 8
  %159 = call i32 @t_tob64(ptr noundef %153, ptr noundef %154, i32 noundef %158)
  %160 = icmp ne i32 %159, 0
  br i1 %160, label %162, label %161

161:                                              ; preds = %152
  br label %187

162:                                              ; preds = %152
  %163 = load ptr, ptr %12, align 8, !tbaa !50
  %164 = load ptr, ptr %163, align 8, !tbaa !18
  %165 = icmp eq ptr %164, null
  br i1 %165, label %166, label %183

166:                                              ; preds = %162
  call void @llvm.lifetime.start.p0(i64 8, ptr %33) #7
  %167 = call noalias ptr @CRYPTO_malloc(i64 noundef 40, ptr noundef @.str, i32 noundef 684)
  store ptr %167, ptr %33, align 8, !tbaa !18
  %168 = icmp eq ptr %167, null
  br i1 %168, label %169, label %170

169:                                              ; preds = %166
  store i32 2, ptr %32, align 4
  br label %180

170:                                              ; preds = %166
  %171 = load ptr, ptr %33, align 8, !tbaa !18
  %172 = getelementptr inbounds [2500 x i8], ptr %28, i64 0, i64 0
  %173 = call i32 @t_tob64(ptr noundef %171, ptr noundef %172, i32 noundef 20)
  %174 = icmp ne i32 %173, 0
  br i1 %174, label %177, label %175

175:                                              ; preds = %170
  %176 = load ptr, ptr %33, align 8, !tbaa !18
  call void @CRYPTO_free(ptr noundef %176, ptr noundef @.str, i32 noundef 688)
  store i32 2, ptr %32, align 4
  br label %180

177:                                              ; preds = %170
  %178 = load ptr, ptr %33, align 8, !tbaa !18
  %179 = load ptr, ptr %12, align 8, !tbaa !50
  store ptr %178, ptr %179, align 8, !tbaa !18
  store i32 0, ptr %32, align 4
  br label %180

180:                                              ; preds = %175, %169, %177
  call void @llvm.lifetime.end.p0(i64 8, ptr %33) #7
  %181 = load i32, ptr %32, align 4
  switch i32 %181, label %196 [
    i32 0, label %182
    i32 2, label %187
  ]

182:                                              ; preds = %180
  br label %183

183:                                              ; preds = %182, %162
  %184 = load ptr, ptr %20, align 8, !tbaa !18
  %185 = load ptr, ptr %13, align 8, !tbaa !50
  store ptr %184, ptr %185, align 8, !tbaa !18
  store ptr null, ptr %20, align 8, !tbaa !18
  %186 = load ptr, ptr %29, align 8, !tbaa !18
  store ptr %186, ptr %19, align 8, !tbaa !18
  br label %187

187:                                              ; preds = %183, %180, %94, %161, %151, %140, %134, %124, %116, %106, %75, %68, %61, %54, %45
  %188 = load ptr, ptr %23, align 8, !tbaa !17
  call void @BN_free(ptr noundef %188)
  %189 = load ptr, ptr %24, align 8, !tbaa !17
  call void @BN_free(ptr noundef %189)
  %190 = load ptr, ptr %20, align 8, !tbaa !18
  %191 = load i32, ptr %30, align 4, !tbaa !32
  %192 = sext i32 %191 to i64
  call void @CRYPTO_clear_free(ptr noundef %190, i64 noundef %192, ptr noundef @.str, i32 noundef 701)
  %193 = load ptr, ptr %25, align 8, !tbaa !17
  call void @BN_clear_free(ptr noundef %193)
  %194 = load ptr, ptr %26, align 8, !tbaa !17
  call void @BN_clear_free(ptr noundef %194)
  %195 = load ptr, ptr %19, align 8, !tbaa !18
  store ptr %195, ptr %9, align 8
  store i32 1, ptr %32, align 4
  br label %196

196:                                              ; preds = %187, %180, %94
  call void @llvm.lifetime.end.p0(i64 4, ptr %30) #7
  call void @llvm.lifetime.end.p0(i64 8, ptr %29) #7
  call void @llvm.lifetime.end.p0(i64 2500, ptr %28) #7
  call void @llvm.lifetime.end.p0(i64 2500, ptr %27) #7
  call void @llvm.lifetime.end.p0(i64 8, ptr %26) #7
  call void @llvm.lifetime.end.p0(i64 8, ptr %25) #7
  call void @llvm.lifetime.end.p0(i64 8, ptr %24) #7
  call void @llvm.lifetime.end.p0(i64 8, ptr %23) #7
  call void @llvm.lifetime.end.p0(i64 8, ptr %22) #7
  call void @llvm.lifetime.end.p0(i64 8, ptr %21) #7
  call void @llvm.lifetime.end.p0(i64 8, ptr %20) #7
  call void @llvm.lifetime.end.p0(i64 8, ptr %19) #7
  call void @llvm.lifetime.end.p0(i64 4, ptr %18) #7
  %197 = load ptr, ptr %9, align 8
  ret ptr %197
}