; Function Attrs: nounwind uwtable
define ptr @SRP_create_verifier_ex(ptr noundef %0, ptr noundef %1, ptr noundef captures(address_is_null) %2, ptr noundef writeonly captures(address_is_null) %3, ptr noundef %4, ptr noundef %5, ptr noundef %6, ptr noundef %7) local_unnamed_addr #0 {
  %9 = alloca ptr, align 8
  %10 = alloca ptr, align 8
  %11 = alloca [2500 x i8], align 16
  %12 = alloca [2500 x i8], align 16
  call void @llvm.lifetime.start.p0(i64 8, ptr nonnull %9) #7
  store ptr null, ptr %9, align 8, !tbaa !44
  call void @llvm.lifetime.start.p0(i64 8, ptr nonnull %10) #7
  store ptr null, ptr %10, align 8, !tbaa !44
  call void @llvm.lifetime.start.p0(i64 2500, ptr nonnull %11) #7
  call void @llvm.lifetime.start.p0(i64 2500, ptr nonnull %12) #7
  %13 = icmp eq ptr %0, null
  %14 = icmp eq ptr %1, null
  %or.cond = or i1 %13, %14
  %15 = icmp eq ptr %2, null
  %or.cond3 = or i1 %or.cond, %15
  %16 = icmp eq ptr %3, null
  %or.cond5 = or i1 %or.cond3, %16
  br i1 %or.cond5, label %.thread93, label %17

17:                                               ; preds = %8
  %.not = icmp eq ptr %4, null
  br i1 %.not, label %30, label %18

18:                                               ; preds = %17
  %19 = call fastcc i32 @t_fromb64(ptr noundef %11, ptr noundef nonnull %4)
  %20 = icmp slt i32 %19, 1
  br i1 %20, label %.thread93, label %21

21:                                               ; preds = %18
  %22 = call ptr @BN_bin2bn(ptr noundef nonnull %11, i32 noundef %19, ptr noundef null) #7
  %23 = icmp eq ptr %22, null
  br i1 %23, label %.thread93, label %24

24:                                               ; preds = %21
  %25 = call fastcc i32 @t_fromb64(ptr noundef %11, ptr noundef %5)
  %26 = icmp slt i32 %25, 1
  br i1 %26, label %.thread93, label %27

27:                                               ; preds = %24
  %28 = call ptr @BN_bin2bn(ptr noundef nonnull %11, i32 noundef %25, ptr noundef null) #7
  %29 = icmp eq ptr %28, null
  br i1 %29, label %.thread93, label %38

30:                                               ; preds = %17
  %31 = tail call ptr @SRP_get_default_gN(ptr noundef %5) #7
  %32 = icmp eq ptr %31, null
  br i1 %32, label %.thread93, label %.thread

.thread:                                          ; preds = %30
  %33 = getelementptr inbounds nuw i8, ptr %31, i64 16
  %34 = load ptr, ptr %33, align 8, !tbaa !32
  %35 = getelementptr inbounds nuw i8, ptr %31, i64 8
  %36 = load ptr, ptr %35, align 8, !tbaa !33
  %37 = load ptr, ptr %31, align 8, !tbaa !21
  br label %38

38:                                               ; preds = %.thread, %27
  %.060 = phi ptr [ %22, %27 ], [ %34, %.thread ]
  %.058 = phi ptr [ %28, %27 ], [ %36, %.thread ]
  %.157 = phi ptr [ %22, %27 ], [ null, %.thread ]
  %.155 = phi ptr [ %28, %27 ], [ null, %.thread ]
  %.052 = phi ptr [ @.str.2, %27 ], [ %37, %.thread ]
  %39 = load ptr, ptr %2, align 8, !tbaa !30
  %40 = icmp eq ptr %39, null
  br i1 %40, label %41, label %44

41:                                               ; preds = %38
  %42 = call i32 @RAND_bytes_ex(ptr noundef %6, ptr noundef nonnull %12, i64 noundef 20, i32 noundef 0) #7
  %43 = icmp slt i32 %42, 1
  br i1 %43, label %.thread93, label %47

44:                                               ; preds = %38
  %45 = call fastcc i32 @t_fromb64(ptr noundef %12, ptr noundef nonnull %39)
  %46 = icmp slt i32 %45, 1
  br i1 %46, label %.thread93, label %47

47:                                               ; preds = %44, %41
  %.sink = phi i32 [ 20, %41 ], [ %45, %44 ]
  %48 = call ptr @BN_bin2bn(ptr noundef nonnull %12, i32 noundef %.sink, ptr noundef null) #7
  store ptr %48, ptr %9, align 8, !tbaa !44
  %49 = icmp eq ptr %48, null
  br i1 %49, label %.thread93, label %50

50:                                               ; preds = %47
  %51 = call i32 @SRP_create_verifier_BN_ex(ptr noundef nonnull %0, ptr noundef nonnull %1, ptr noundef nonnull %9, ptr noundef nonnull %10, ptr noundef %.060, ptr noundef %.058, ptr noundef %6, ptr noundef %7)
  %.not81 = icmp eq i32 %51, 0
  br i1 %.not81, label %.thread93, label %52

52:                                               ; preds = %50
  %53 = load ptr, ptr %10, align 8, !tbaa !44
  %54 = call i32 @BN_bn2bin(ptr noundef %53, ptr noundef nonnull %11) #7
  %55 = icmp slt i32 %54, 0
  br i1 %55, label %.thread93, label %56

56:                                               ; preds = %52
  %57 = load ptr, ptr %10, align 8, !tbaa !44
  %58 = call i32 @BN_num_bits(ptr noundef %57) #7
  %59 = add nsw i32 %58, 7
  %60 = sdiv i32 %59, 8
  %61 = shl nsw i32 %60, 1
  %62 = sext i32 %61 to i64
  %63 = call noalias ptr @CRYPTO_malloc(i64 noundef %62, ptr noundef nonnull @.str, i32 noundef 676) #7
  %64 = icmp eq ptr %63, null
  br i1 %64, label %.thread93, label %65

65:                                               ; preds = %56
  %66 = load ptr, ptr %10, align 8, !tbaa !44
  %67 = call i32 @BN_num_bits(ptr noundef %66) #7
  %68 = add nsw i32 %67, 7
  %69 = sdiv i32 %68, 8
  %70 = call fastcc i32 @t_tob64(ptr noundef %63, ptr noundef %11, i32 noundef %69)
  %.not82 = icmp eq i32 %70, 0
  br i1 %.not82, label %.thread93, label %71

71:                                               ; preds = %65
  %72 = load ptr, ptr %2, align 8, !tbaa !30
  %73 = icmp eq ptr %72, null
  br i1 %73, label %74, label %81

74:                                               ; preds = %71
  %75 = call noalias ptr @CRYPTO_malloc(i64 noundef 40, ptr noundef nonnull @.str, i32 noundef 684) #7
  %76 = icmp eq ptr %75, null
  br i1 %76, label %.thread93, label %77

77:                                               ; preds = %74
  %78 = call fastcc i32 @t_tob64(ptr noundef %75, ptr noundef %12, i32 noundef 20)
  %.not83 = icmp eq i32 %78, 0
  br i1 %.not83, label %79, label %80

79:                                               ; preds = %77
  call void @CRYPTO_free(ptr noundef nonnull %75, ptr noundef nonnull @.str, i32 noundef 688) #7
  br label %.thread93

80:                                               ; preds = %77
  store ptr %75, ptr %2, align 8, !tbaa !30
  br label %81

81:                                               ; preds = %80, %71
  store ptr %63, ptr %3, align 8, !tbaa !30
  br label %.thread93

.thread93:                                        ; preds = %74, %79, %30, %65, %56, %52, %50, %47, %44, %41, %27, %24, %21, %18, %8, %81
  %.063 = phi ptr [ null, %8 ], [ null, %18 ], [ null, %21 ], [ null, %24 ], [ null, %27 ], [ null, %41 ], [ null, %47 ], [ null, %52 ], [ null, %56 ], [ %.052, %81 ], [ null, %65 ], [ null, %50 ], [ null, %44 ], [ null, %30 ], [ null, %79 ], [ null, %74 ]
  %.062 = phi ptr [ null, %8 ], [ null, %18 ], [ null, %21 ], [ null, %24 ], [ null, %27 ], [ null, %41 ], [ null, %47 ], [ null, %52 ], [ null, %56 ], [ null, %81 ], [ %63, %65 ], [ null, %50 ], [ null, %44 ], [ null, %30 ], [ %63, %79 ], [ %63, %74 ]
  %.056 = phi ptr [ null, %8 ], [ null, %18 ], [ null, %21 ], [ %22, %24 ], [ %22, %27 ], [ %.157, %41 ], [ %.157, %47 ], [ %.157, %52 ], [ %.157, %56 ], [ %.157, %81 ], [ %.157, %65 ], [ %.157, %50 ], [ %.157, %44 ], [ null, %30 ], [ %.157, %79 ], [ %.157, %74 ]
  %.054 = phi ptr [ null, %8 ], [ null, %18 ], [ null, %21 ], [ null, %24 ], [ null, %27 ], [ %.155, %41 ], [ %.155, %47 ], [ %.155, %52 ], [ %.155, %56 ], [ %.155, %81 ], [ %.155, %65 ], [ %.155, %50 ], [ %.155, %44 ], [ null, %30 ], [ %.155, %79 ], [ %.155, %74 ]
  %.051 = phi i32 [ 0, %8 ], [ 0, %18 ], [ 0, %21 ], [ 0, %24 ], [ 0, %27 ], [ 0, %41 ], [ 0, %47 ], [ 0, %52 ], [ %61, %56 ], [ %61, %81 ], [ %61, %65 ], [ 0, %50 ], [ 0, %44 ], [ 0, %30 ], [ %61, %79 ], [ %61, %74 ]
  call void @BN_free(ptr noundef %.056) #7
  call void @BN_free(ptr noundef %.054) #7
  %82 = sext i32 %.051 to i64
  call void @CRYPTO_clear_free(ptr noundef %.062, i64 noundef %82, ptr noundef nonnull @.str, i32 noundef 701) #7
  %83 = load ptr, ptr %9, align 8, !tbaa !44
  call void @BN_clear_free(ptr noundef %83) #7
  %84 = load ptr, ptr %10, align 8, !tbaa !44
  call void @BN_clear_free(ptr noundef %84) #7
  call void @llvm.lifetime.end.p0(i64 2500, ptr nonnull %12) #7
  call void @llvm.lifetime.end.p0(i64 2500, ptr nonnull %11) #7
  call void @llvm.lifetime.end.p0(i64 8, ptr nonnull %10) #7
  call void @llvm.lifetime.end.p0(i64 8, ptr nonnull %9) #7
  ret ptr %.063
}